; ModuleID = '20/576.c'
source_filename = "20/576.c"
target datalayout = "e-m:e-p270:32:32-p271:32:32-p272:64:64-i64:64-f80:128-n8:16:32:64-S128"
target triple = "x86_64-pc-linux-gnu"

@.str = private unnamed_addr constant [5 x i8] c"%s%s\00", align 1
@.str.1 = private unnamed_addr constant [3 x i8] c"%c\00", align 1
@.str.2 = private unnamed_addr constant [3 x i8] c"%s\00", align 1
@.str.3 = private unnamed_addr constant [2 x i8] c"\0A\00", align 1

; Function Attrs: noinline nounwind uwtable
define dso_local void @main() #0 {
  %1 = alloca i8*, align 8
  %2 = alloca i8*, align 8
  %3 = alloca i32, align 4
  %4 = alloca [100 x i8], align 16
  %5 = alloca [5 x i8], align 1
  br label %6

6:                                                ; preds = %63, %0
  %7 = call i32 (i8*, ...) @__isoc99_scanf(i8* getelementptr inbounds ([5 x i8], [5 x i8]* @.str, i64 0, i64 0), [100 x i8]* %4, [5 x i8]* %5)
  %8 = icmp ne i32 %7, -1
  br i1 %8, label %9, label %65

9:                                                ; preds = %6
  store i32 0, i32* %3, align 4
  %10 = getelementptr inbounds [100 x i8], [100 x i8]* %4, i64 0, i64 0
  store i8* %10, i8** %2, align 8
  br label %11

11:                                               ; preds = %28, %9
  %12 = load i8*, i8** %2, align 8
  %13 = load i8, i8* %12, align 1
  %14 = sext i8 %13 to i32
  %15 = icmp ne i32 %14, 0
  br i1 %15, label %16, label %31

16:                                               ; preds = %11
  %17 = load i8*, i8** %2, align 8
  %18 = load i8, i8* %17, align 1
  %19 = sext i8 %18 to i32
  %20 = load i32, i32* %3, align 4
  %21 = icmp sgt i32 %19, %20
  br i1 %21, label %22, label %27

22:                                               ; preds = %16
  %23 = load i8*, i8** %2, align 8
  %24 = load i8, i8* %23, align 1
  %25 = sext i8 %24 to i32
  store i32 %25, i32* %3, align 4
  %26 = load i8*, i8** %2, align 8
  store i8* %26, i8** %1, align 8
  br label %27

27:                                               ; preds = %22, %16
  br label %28

28:                                               ; preds = %27
  %29 = load i8*, i8** %2, align 8
  %30 = getelementptr inbounds i8, i8* %29, i32 1
  store i8* %30, i8** %2, align 8
  br label %11

31:                                               ; preds = %11
  %32 = getelementptr inbounds [100 x i8], [100 x i8]* %4, i64 0, i64 0
  store i8* %32, i8** %2, align 8
  br label %33

33:                                               ; preds = %42, %31
  %34 = load i8*, i8** %2, align 8
  %35 = load i8*, i8** %1, align 8
  %36 = icmp ule i8* %34, %35
  br i1 %36, label %37, label %45

37:                                               ; preds = %33
  %38 = load i8*, i8** %2, align 8
  %39 = load i8, i8* %38, align 1
  %40 = sext i8 %39 to i32
  %41 = call i32 (i8*, ...) @printf(i8* getelementptr inbounds ([3 x i8], [3 x i8]* @.str.1, i64 0, i64 0), i32 %40)
  br label %42

42:                                               ; preds = %37
  %43 = load i8*, i8** %2, align 8
  %44 = getelementptr inbounds i8, i8* %43, i32 1
  store i8* %44, i8** %2, align 8
  br label %33

45:                                               ; preds = %33
  %46 = getelementptr inbounds [5 x i8], [5 x i8]* %5, i64 0, i64 0
  %47 = call i32 (i8*, ...) @printf(i8* getelementptr inbounds ([3 x i8], [3 x i8]* @.str.2, i64 0, i64 0), i8* %46)
  %48 = load i8*, i8** %1, align 8
  %49 = getelementptr inbounds i8, i8* %48, i64 1
  store i8* %49, i8** %2, align 8
  br label %50

50:                                               ; preds = %60, %45
  %51 = load i8*, i8** %2, align 8
  %52 = load i8, i8* %51, align 1
  %53 = sext i8 %52 to i32
  %54 = icmp ne i32 %53, 0
  br i1 %54, label %55, label %63

55:                                               ; preds = %50
  %56 = load i8*, i8** %2, align 8
  %57 = load i8, i8* %56, align 1
  %58 = sext i8 %57 to i32
  %59 = call i32 (i8*, ...) @printf(i8* getelementptr inbounds ([3 x i8], [3 x i8]* @.str.1, i64 0, i64 0), i32 %58)
  br label %60

60:                                               ; preds = %55
  %61 = load i8*, i8** %2, align 8
  %62 = getelementptr inbounds i8, i8* %61, i32 1
  store i8* %62, i8** %2, align 8
  br label %50

63:                                               ; preds = %50
  %64 = call i32 (i8*, ...) @printf(i8* getelementptr inbounds ([2 x i8], [2 x i8]* @.str.3, i64 0, i64 0))
  br label %6

65:                                               ; preds = %6
  ret void
}

declare dso_local i32 @__isoc99_scanf(i8*, ...) #1

declare dso_local i32 @printf(i8*, ...) #1


!llvm.module.flags = !{!0}
!llvm.ident = !{!1}

!0 = !{i32 1, !"wchar_size", i32 4}
!1 = !{!"clang version 10.0.0-4ubuntu1 "}
